target datalayout = "e-m:e-p270:32:32-p271:32:32-p272:64:64-i64:64-i128:128-f80:128-n8:16:32:64-S128"
target triple = "x86_64-unknown-linux-gnu"

%struct.MemoryRegionOps = type { ptr, ptr, ptr, ptr, i32, %struct.anon.5, %struct.anon.6 }
%struct.anon.5 = type { i32, i32, i8, ptr }
%struct.anon.6 = type { i32, i32, i8 }
%struct.PCIDeviceClass = type { %struct.DeviceClass, ptr, ptr, ptr, ptr, i16, i16, i8, i16, i16, i16, ptr }
%struct.DeviceClass = type { %struct.ObjectClass, [1 x i64], ptr, ptr, ptr, i8, i8, ptr, ptr, ptr, ptr, ptr }
%struct.ObjectClass = type { ptr, ptr, [4 x ptr], [4 x ptr], ptr, ptr }
%struct.E1000State_st = type { %struct.PCIDevice, ptr, %struct.NICConf, %struct.MemoryRegion, %struct.MemoryRegion, [32768 x i32], [32 x i16], [64 x i16], i32, i32, %struct.e1000_tx, %struct.anon, ptr, ptr, i8, i8, i32, ptr, i32, i8, i8, %struct.e1000x_txd_props }
%struct.PCIDevice = type { %struct.DeviceState, i8, i8, ptr, ptr, ptr, ptr, ptr, i32, %struct.PCIReqIDCache, [64 x i8], [7 x %struct.PCIIORegion], %struct.AddressSpace, %struct.MemoryRegion, %struct.MemoryRegion, ptr, ptr, [3 x ptr], i8, i8, i32, i8, i32, ptr, ptr, ptr, ptr, ptr, ptr, %struct.MemoryRegion, %struct.MemoryRegion, %struct.MemoryRegion, ptr, i8, i32, i8, %struct.PCIExpressDevice, ptr, ptr, i32, i8, %struct.MemoryRegion, i32, ptr, ptr, ptr, ptr, ptr, i32 }
%struct.DeviceState = type { %struct.Object, ptr, ptr, i8, i8, i64, ptr, i32, i8, ptr, %struct.NamedGPIOListHead, %struct.NamedClockListHead, %struct.BusStateHead, i32, i32, i32, %struct.ResettableState, ptr, %struct.MemReentrancyGuard }
%struct.Object = type { ptr, ptr, ptr, i32, ptr }
%struct.NamedGPIOListHead = type { ptr }
%struct.NamedClockListHead = type { ptr }
%struct.BusStateHead = type { ptr }
%struct.ResettableState = type { i32, i8, i8 }
%struct.MemReentrancyGuard = type { i8 }
%struct.PCIReqIDCache = type { ptr, i32 }
%struct.PCIIORegion = type { i64, i64, i8, ptr, ptr }
%struct.AddressSpace = type { %struct.rcu_head, ptr, ptr, ptr, i32, i32, ptr, %union.anon, %union.anon.0 }
%struct.rcu_head = type { ptr, ptr }
%union.anon = type { %struct.QTailQLink }
%struct.QTailQLink = type { ptr, ptr }
%union.anon.0 = type { %struct.QTailQLink }
%struct.PCIExpressDevice = type { i8, i8, i8, i16, %struct.PCIEAERLog, i16, i16, i16, %struct.PCIESriovPF, %struct.PCIESriovVF }
%struct.PCIEAERLog = type { i16, i16, ptr }
%struct.PCIESriovPF = type { i16, [7 x i8], ptr, ptr }
%struct.PCIESriovVF = type { ptr, i16 }
%struct.NICConf = type { %struct.MACAddr, %struct.NICPeers, i32 }
%struct.MACAddr = type { [6 x i8] }
%struct.NICPeers = type { [1024 x ptr], i32 }
%struct.MemoryRegion = type { %struct.Object, i8, i8, i8, i8, i8, i8, i8, i8, i8, i8, ptr, ptr, ptr, ptr, ptr, ptr, i32, i128, i64, ptr, i64, i8, i8, i8, i8, i8, ptr, i64, i32, %union.anon.1, %union.anon.2, %union.anon.3, ptr, i32, ptr, ptr, i8 }
%union.anon.1 = type { %struct.QTailQLink }
%union.anon.2 = type { %struct.QTailQLink }
%union.anon.3 = type { %struct.QTailQLink }
%struct.e1000_tx = type { [256 x i8], [4 x i8], [4 x i8], [65536 x i8], i16, i8, i8, i8, %struct.e1000x_txd_props, %struct.e1000x_txd_props, i16, i8 }
%struct.anon = type { i32, i16, i16, i16, i32 }
%struct.e1000x_txd_props = type { i8, i8, i16, i8, i8, i16, i32, i8, i16, i8, i8, i8 }

@.str = private unnamed_addr constant [11 x i8] c"e1000-base\00", align 1
@.str.1 = private unnamed_addr constant [11 x i8] c"pci-device\00", align 1
@.str.5 = private unnamed_addr constant [23 x i8] c"../qemu/hw/net/e1000.c\00", align 1
@__func__.E1000 = private unnamed_addr constant [6 x i8] c"E1000\00", align 1
@.str.6 = private unnamed_addr constant [7 x i8] c"device\00", align 1
@.str.7 = private unnamed_addr constant [101 x i8] c"/home/dtcxzyw/WorkSpace/Projects/compilers/llvm-opt-benchmark/bench/qemu/qemu/include/hw/qdev-core.h\00", align 1
@__func__.DEVICE = private unnamed_addr constant [7 x i8] c"DEVICE\00", align 1
@.str.15 = private unnamed_addr constant [106 x i8] c"/home/dtcxzyw/WorkSpace/Projects/compilers/llvm-opt-benchmark/bench/qemu/qemu/include/hw/pci/pci_device.h\00", align 1
@__const.e1000_mmio_setup.excluded_regs = private unnamed_addr constant [8 x i32] [i32 32, i32 192, i32 200, i32 208, i32 216, i32 1024, i32 14360, i32 131072], align 16
@e1000_mmio_ops = internal constant %struct.MemoryRegionOps { ptr @e1000_mmio_read, ptr @e1000_mmio_write, ptr null, ptr null, i32 2, %struct.anon.5 zeroinitializer, %struct.anon.6 { i32 4, i32 4, i8 0 } }, align 8
@.str.16 = private unnamed_addr constant [11 x i8] c"e1000-mmio\00", align 1
@e1000_io_ops = internal constant %struct.MemoryRegionOps { ptr @e1000_io_read, ptr @e1000_io_write, ptr null, ptr null, i32 2, %struct.anon.5 zeroinitializer, %struct.anon.6 zeroinitializer }, align 8
@.str.17 = private unnamed_addr constant [9 x i8] c"e1000-io\00", align 1
@__func__.PCI_DEVICE_GET_CLASS = private unnamed_addr constant [21 x i8] c"PCI_DEVICE_GET_CLASS\00", align 1

; Function Attrs: nounwind sspstrong uwtable
define internal ptr @timer_new_full(ptr noundef %timer_list_group, i32 noundef %type, i32 noundef %scale, i32 noundef %attributes, ptr noundef %cb, ptr noundef %opaque) #0 {
entry:
  %timer_list_group.addr = alloca ptr, align 8
  %type.addr = alloca i32, align 4
  %scale.addr = alloca i32, align 4
  %attributes.addr = alloca i32, align 4
  %cb.addr = alloca ptr, align 8
  %opaque.addr = alloca ptr, align 8
  %ts = alloca ptr, align 8
  store ptr %timer_list_group, ptr %timer_list_group.addr, align 8
  store i32 %type, ptr %type.addr, align 4
  store i32 %scale, ptr %scale.addr, align 4
  store i32 %attributes, ptr %attributes.addr, align 4
  store ptr %cb, ptr %cb.addr, align 8
  store ptr %opaque, ptr %opaque.addr, align 8
  %call = call noalias ptr @g_malloc0_n(i64 noundef 1, i64 noundef 48) #9
  store ptr %call, ptr %ts, align 8
  %0 = load ptr, ptr %ts, align 8
  %1 = load ptr, ptr %timer_list_group.addr, align 8
  %2 = load i32, ptr %type.addr, align 4
  %3 = load i32, ptr %scale.addr, align 4
  %4 = load i32, ptr %attributes.addr, align 4
  %5 = load ptr, ptr %cb.addr, align 8
  %6 = load ptr, ptr %opaque.addr, align 8
  call void @timer_init_full(ptr noundef %0, ptr noundef %1, i32 noundef %2, i32 noundef %3, i32 noundef %4, ptr noundef %5, ptr noundef %6)
  %7 = load ptr, ptr %ts, align 8
  ret ptr %7
}

; Function Attrs: nounwind sspstrong uwtable
define internal ptr @timer_new(i32 noundef %type, i32 noundef %scale, ptr noundef %cb, ptr noundef %opaque) #0 {
entry:
  %type.addr = alloca i32, align 4
  %scale.addr = alloca i32, align 4
  %cb.addr = alloca ptr, align 8
  %opaque.addr = alloca ptr, align 8
  store i32 %type, ptr %type.addr, align 4
  store i32 %scale, ptr %scale.addr, align 4
  store ptr %cb, ptr %cb.addr, align 8
  store ptr %opaque, ptr %opaque.addr, align 8
  %0 = load i32, ptr %type.addr, align 4
  %1 = load i32, ptr %scale.addr, align 4
  %2 = load ptr, ptr %cb.addr, align 8
  %3 = load ptr, ptr %opaque.addr, align 8
  %call = call ptr @timer_new_full(ptr noundef null, i32 noundef %0, i32 noundef %1, i32 noundef 0, ptr noundef %2, ptr noundef %3)
  ret ptr %call
}

; Function Attrs: nounwind sspstrong uwtable
define internal ptr @timer_new_ns(i32 noundef %type, ptr noundef %cb, ptr noundef %opaque) #0 {
entry:
  %type.addr = alloca i32, align 4
  %cb.addr = alloca ptr, align 8
  %opaque.addr = alloca ptr, align 8
  store i32 %type, ptr %type.addr, align 4
  store ptr %cb, ptr %cb.addr, align 8
  store ptr %opaque, ptr %opaque.addr, align 8
  %0 = load i32, ptr %type.addr, align 4
  %1 = load ptr, ptr %cb.addr, align 8
  %2 = load ptr, ptr %opaque.addr, align 8
  %call = call ptr @timer_new(i32 noundef %0, i32 noundef 1, ptr noundef %1, ptr noundef %2)
  ret ptr %call
}

; Function Attrs: nounwind sspstrong uwtable
define internal ptr @timer_new_ms(i32 noundef %type, ptr noundef %cb, ptr noundef %opaque) #0 {
entry:
  %type.addr = alloca i32, align 4
  %cb.addr = alloca ptr, align 8
  %opaque.addr = alloca ptr, align 8
  store i32 %type, ptr %type.addr, align 4
  store ptr %cb, ptr %cb.addr, align 8
  store ptr %opaque, ptr %opaque.addr, align 8
  %0 = load i32, ptr %type.addr, align 4
  %1 = load ptr, ptr %cb.addr, align 8
  %2 = load ptr, ptr %opaque.addr, align 8
  %call = call ptr @timer_new(i32 noundef %0, i32 noundef 1000000, ptr noundef %1, ptr noundef %2)
  ret ptr %call
}

; Function Attrs: nounwind sspstrong uwtable
define internal ptr @PCI_DEVICE_GET_CLASS(ptr noundef %obj) #0 {
entry:
  %obj.addr = alloca ptr, align 8
  store ptr %obj, ptr %obj.addr, align 8
  %0 = load ptr, ptr %obj.addr, align 8
  %call = call ptr @object_get_class(ptr noundef %0)
  %call1 = call ptr @object_class_dynamic_cast_assert(ptr noundef %call, ptr noundef @.str.1, ptr noundef @.str.15, i32 noundef 10, ptr noundef @__func__.PCI_DEVICE_GET_CLASS)
  ret ptr %call1
}

; Function Attrs: nounwind sspstrong uwtable
define internal void @e1000_mmio_setup(ptr noundef %d) #0 {
entry:
  %d.addr = alloca ptr, align 8
  %i = alloca i32, align 4
  %excluded_regs = alloca [8 x i32], align 16
  store ptr %d, ptr %d.addr, align 8
  call void @llvm.memcpy.p0.p0.i64(ptr align 16 %excluded_regs, ptr align 16 @__const.e1000_mmio_setup.excluded_regs, i64 32, i1 false)
  %0 = load ptr, ptr %d.addr, align 8
  %mmio = getelementptr inbounds %struct.E1000State_st, ptr %0, i32 0, i32 3
  %1 = load ptr, ptr %d.addr, align 8
  %2 = load ptr, ptr %d.addr, align 8
  call void @memory_region_init_io(ptr noundef %mmio, ptr noundef %1, ptr noundef @e1000_mmio_ops, ptr noundef %2, ptr noundef @.str.16, i64 noundef 131072)
  %3 = load ptr, ptr %d.addr, align 8
  %mmio1 = getelementptr inbounds %struct.E1000State_st, ptr %3, i32 0, i32 3
  %arrayidx = getelementptr [8 x i32], ptr %excluded_regs, i64 0, i64 0
  %4 = load i32, ptr %arrayidx, align 16
  %conv = zext i32 %4 to i64
  call void @memory_region_add_coalescing(ptr noundef %mmio1, i64 noundef 0, i64 noundef %conv)
  store i32 0, ptr %i, align 4
  br label %for.cond

for.cond:                                         ; preds = %for.inc, %entry
  %5 = load i32, ptr %i, align 4
  %idxprom = sext i32 %5 to i64
  %arrayidx2 = getelementptr [8 x i32], ptr %excluded_regs, i64 0, i64 %idxprom
  %6 = load i32, ptr %arrayidx2, align 4
  %cmp = icmp ne i32 %6, 131072
  br i1 %cmp, label %for.body, label %for.end

for.body:                                         ; preds = %for.cond
  %7 = load ptr, ptr %d.addr, align 8
  %mmio4 = getelementptr inbounds %struct.E1000State_st, ptr %7, i32 0, i32 3
  %8 = load i32, ptr %i, align 4
  %idxprom5 = sext i32 %8 to i64
  %arrayidx6 = getelementptr [8 x i32], ptr %excluded_regs, i64 0, i64 %idxprom5
  %9 = load i32, ptr %arrayidx6, align 4
  %add = add i32 %9, 4
  %conv7 = zext i32 %add to i64
  %10 = load i32, ptr %i, align 4
  %add8 = add i32 %10, 1
  %idxprom9 = sext i32 %add8 to i64
  %arrayidx10 = getelementptr [8 x i32], ptr %excluded_regs, i64 0, i64 %idxprom9
  %11 = load i32, ptr %arrayidx10, align 4
  %12 = load i32, ptr %i, align 4
  %idxprom11 = sext i32 %12 to i64
  %arrayidx12 = getelementptr [8 x i32], ptr %excluded_regs, i64 0, i64 %idxprom11
  %13 = load i32, ptr %arrayidx12, align 4
  %sub = sub i32 %11, %13
  %sub13 = sub i32 %sub, 4
  %conv14 = zext i32 %sub13 to i64
  call void @memory_region_add_coalescing(ptr noundef %mmio4, i64 noundef %conv7, i64 noundef %conv14)
  br label %for.inc

for.inc:                                          ; preds = %for.body
  %14 = load i32, ptr %i, align 4
  %inc = add i32 %14, 1
  store i32 %inc, ptr %i, align 4
  br label %for.cond, !llvm.loop !7

for.end:                                          ; preds = %for.cond
  %15 = load ptr, ptr %d.addr, align 8
  %io = getelementptr inbounds %struct.E1000State_st, ptr %15, i32 0, i32 4
  %16 = load ptr, ptr %d.addr, align 8
  %17 = load ptr, ptr %d.addr, align 8
  call void @memory_region_init_io(ptr noundef %io, ptr noundef %16, ptr noundef @e1000_io_ops, ptr noundef %17, ptr noundef @.str.17, i64 noundef 64)
  ret void
}

; Function Attrs: nounwind sspstrong uwtable
define internal ptr @E1000(ptr noundef %obj) #0 {
entry:
  %obj.addr = alloca ptr, align 8
  store ptr %obj, ptr %obj.addr, align 8
  %0 = load ptr, ptr %obj.addr, align 8
  %call = call ptr @object_dynamic_cast_assert(ptr noundef %0, ptr noundef @.str, ptr noundef @.str.5, i32 noundef 155, ptr noundef @__func__.E1000)
  ret ptr %call
}

; Function Attrs: nounwind sspstrong uwtable
define internal ptr @DEVICE(ptr noundef %obj) #0 {
entry:
  %obj.addr = alloca ptr, align 8
  store ptr %obj, ptr %obj.addr, align 8
  %0 = load ptr, ptr %obj.addr, align 8
  %call = call ptr @object_dynamic_cast_assert(ptr noundef %0, ptr noundef @.str.6, ptr noundef @.str.7, i32 noundef 77, ptr noundef @__func__.DEVICE)
  ret ptr %call
}

; Function Attrs: nounwind sspstrong uwtable
define internal void @pci_e1000_realize(ptr noundef %pci_dev, ptr noundef %errp) #0 {
entry:
  %pci_dev.addr = alloca ptr, align 8
  %errp.addr = alloca ptr, align 8
  %dev = alloca ptr, align 8
  %d = alloca ptr, align 8
  %pci_conf = alloca ptr, align 8
  %macaddr = alloca ptr, align 8
  store ptr %pci_dev, ptr %pci_dev.addr, align 8
  store ptr %errp, ptr %errp.addr, align 8
  %0 = load ptr, ptr %pci_dev.addr, align 8
  %call = call ptr @DEVICE(ptr noundef %0)
  store ptr %call, ptr %dev, align 8
  %1 = load ptr, ptr %pci_dev.addr, align 8
  %call1 = call ptr @E1000(ptr noundef %1)
  store ptr %call1, ptr %d, align 8
  %2 = load ptr, ptr %pci_dev.addr, align 8
  %config_write = getelementptr inbounds %struct.PCIDevice, ptr %2, i32 0, i32 16
  store ptr @e1000_write_config, ptr %config_write, align 8
  %3 = load ptr, ptr %pci_dev.addr, align 8
  %config = getelementptr inbounds %struct.PCIDevice, ptr %3, i32 0, i32 3
  %4 = load ptr, ptr %config, align 8
  store ptr %4, ptr %pci_conf, align 8
  %5 = load ptr, ptr %pci_conf, align 8
  %arrayidx = getelementptr i8, ptr %5, i64 12
  store i8 16, ptr %arrayidx, align 1
  %6 = load ptr, ptr %pci_conf, align 8
  %arrayidx2 = getelementptr i8, ptr %6, i64 61
  store i8 1, ptr %arrayidx2, align 1
  %7 = load ptr, ptr %d, align 8
  call void @e1000_mmio_setup(ptr noundef %7)
  %8 = load ptr, ptr %pci_dev.addr, align 8
  %9 = load ptr, ptr %d, align 8
  %mmio = getelementptr inbounds %struct.E1000State_st, ptr %9, i32 0, i32 3
  call void @pci_register_bar(ptr noundef %8, i32 noundef 0, i8 noundef zeroext 0, ptr noundef %mmio)
  %10 = load ptr, ptr %pci_dev.addr, align 8
  %11 = load ptr, ptr %d, align 8
  %io = getelementptr inbounds %struct.E1000State_st, ptr %11, i32 0, i32 4
  call void @pci_register_bar(ptr noundef %10, i32 noundef 1, i8 noundef zeroext 1, ptr noundef %io)
  %12 = load ptr, ptr %d, align 8
  %conf = getelementptr inbounds %struct.E1000State_st, ptr %12, i32 0, i32 2
  %macaddr3 = getelementptr inbounds %struct.NICConf, ptr %conf, i32 0, i32 0
  call void @qemu_macaddr_default_if_unset(ptr noundef %macaddr3)
  %13 = load ptr, ptr %d, align 8
  %conf4 = getelementptr inbounds %struct.E1000State_st, ptr %13, i32 0, i32 2
  %macaddr5 = getelementptr inbounds %struct.NICConf, ptr %conf4, i32 0, i32 0
  %a = getelementptr inbounds %struct.MACAddr, ptr %macaddr5, i32 0, i32 0
  %arraydecay = getelementptr inbounds [6 x i8], ptr %a, i64 0, i64 0
  store ptr %arraydecay, ptr %macaddr, align 8
  %14 = load ptr, ptr %d, align 8
  %eeprom_data = getelementptr inbounds %struct.E1000State_st, ptr %14, i32 0, i32 7
  %arraydecay6 = getelementptr inbounds [64 x i16], ptr %eeprom_data, i64 0, i64 0
  %15 = load ptr, ptr %pci_dev.addr, align 8
  %call7 = call ptr @PCI_DEVICE_GET_CLASS(ptr noundef %15)
  %device_id = getelementptr inbounds %struct.PCIDeviceClass, ptr %call7, i32 0, i32 6
  %16 = load i16, ptr %device_id, align 2
  %17 = load ptr, ptr %macaddr, align 8
  call void @e1000x_core_prepare_eeprom(ptr noundef %arraydecay6, ptr noundef @e1000_eeprom_template, i32 noundef 128, i16 noundef zeroext %16, ptr noundef %17)
  %18 = load ptr, ptr %d, align 8
  %conf8 = getelementptr inbounds %struct.E1000State_st, ptr %18, i32 0, i32 2
  %19 = load ptr, ptr %d, align 8
  %call9 = call ptr @object_get_typename(ptr noundef %19)
  %20 = load ptr, ptr %dev, align 8
  %id = getelementptr inbounds %struct.DeviceState, ptr %20, i32 0, i32 1
  %21 = load ptr, ptr %id, align 8
  %22 = load ptr, ptr %dev, align 8
  %mem_reentrancy_guard = getelementptr inbounds %struct.DeviceState, ptr %22, i32 0, i32 18
  %23 = load ptr, ptr %d, align 8
  %call10 = call ptr @qemu_new_nic(ptr noundef @net_e1000_info, ptr noundef %conf8, ptr noundef %call9, ptr noundef %21, ptr noundef %mem_reentrancy_guard, ptr noundef %23)
  %24 = load ptr, ptr %d, align 8
  %nic = getelementptr inbounds %struct.E1000State_st, ptr %24, i32 0, i32 1
  store ptr %call10, ptr %nic, align 16
  %25 = load ptr, ptr %d, align 8
  %nic11 = getelementptr inbounds %struct.E1000State_st, ptr %25, i32 0, i32 1
  %26 = load ptr, ptr %nic11, align 16
  %call12 = call ptr @qemu_get_queue(ptr noundef %26)
  %27 = load ptr, ptr %macaddr, align 8
  call void @qemu_format_nic_info_str(ptr noundef %call12, ptr noundef %27)
  %28 = load ptr, ptr %d, align 8
  %call13 = call ptr @timer_new_ms(i32 noundef 1, ptr noundef @e1000_autoneg_timer, ptr noundef %28)
  %29 = load ptr, ptr %d, align 8
  %autoneg_timer = getelementptr inbounds %struct.E1000State_st, ptr %29, i32 0, i32 12
  store ptr %call13, ptr %autoneg_timer, align 8
  %30 = load ptr, ptr %d, align 8
  %call14 = call ptr @timer_new_ns(i32 noundef 1, ptr noundef @e1000_mit_timer, ptr noundef %30)
  %31 = load ptr, ptr %d, align 8
  %mit_timer = getelementptr inbounds %struct.E1000State_st, ptr %31, i32 0, i32 13
  store ptr %call14, ptr %mit_timer, align 16
  %32 = load ptr, ptr %d, align 8
  %call15 = call ptr @timer_new_ms(i32 noundef 1, ptr noundef @e1000_flush_queue_timer, ptr noundef %32)
  %33 = load ptr, ptr %d, align 8
  %flush_queue_timer = getelementptr inbounds %struct.E1000State_st, ptr %33, i32 0, i32 17
  store ptr %call15, ptr %flush_queue_timer, align 16
  ret void
}