; Function Attrs: nounwind sspstrong uwtable
define internal void @pci_e1000_realize(ptr noundef %pci_dev, ptr readnone captures(none) %errp) #0 {
entry:
  %call.i = tail call ptr @object_dynamic_cast_assert(ptr noundef %pci_dev, ptr noundef nonnull @.str.6, ptr noundef nonnull @.str.7, i32 noundef 77, ptr noundef nonnull @__func__.DEVICE) #13
  %call.i26 = tail call ptr @object_dynamic_cast_assert(ptr noundef %pci_dev, ptr noundef nonnull @.str, ptr noundef nonnull @.str.5, i32 noundef 155, ptr noundef nonnull @__func__.E1000) #13
  %config_write = getelementptr inbounds nuw i8, ptr %pci_dev, i64 1224
  store ptr @e1000_write_config, ptr %config_write, align 8
  %config = getelementptr inbounds nuw i8, ptr %pci_dev, i64 168
  %0 = load ptr, ptr %config, align 8
  %arrayidx = getelementptr i8, ptr %0, i64 12
  store i8 16, ptr %arrayidx, align 1
  %arrayidx2 = getelementptr i8, ptr %0, i64 61
  store i8 1, ptr %arrayidx2, align 1
  %mmio.i = getelementptr inbounds nuw i8, ptr %call.i26, i64 10832
  tail call void @memory_region_init_io(ptr noundef nonnull %mmio.i, ptr noundef %call.i26, ptr noundef nonnull @e1000_mmio_ops, ptr noundef %call.i26, ptr noundef nonnull @.str.16, i64 noundef 131072) #13
  tail call void @memory_region_add_coalescing(ptr noundef nonnull %mmio.i, i64 noundef 0, i64 noundef 32) #13
  br label %for.body.i

for.body.i:                                       ; preds = %for.body.i, %entry
  %1 = phi i32 [ 32, %entry ], [ %2, %for.body.i ]
  %indvars.iv.i = phi i64 [ 0, %entry ], [ %indvars.iv.next.i, %for.body.i ]
  %add.i = add i32 %1, 4
  %conv7.i = zext i32 %add.i to i64
  %indvars.iv.next.i = add nuw nsw i64 %indvars.iv.i, 1
  %arrayidx10.i = getelementptr [8 x i32], ptr @__const.e1000_mmio_setup.excluded_regs, i64 0, i64 %indvars.iv.next.i
  %2 = load i32, ptr %arrayidx10.i, align 4
  %reass.sub = sub i32 %2, %1
  %sub13.i = add i32 %reass.sub, -4
  %conv14.i = zext i32 %sub13.i to i64
  tail call void @memory_region_add_coalescing(ptr noundef nonnull %mmio.i, i64 noundef %conv7.i, i64 noundef %conv14.i) #13
  %cmp.not.i = icmp eq i64 %indvars.iv.next.i, 7
  br i1 %cmp.not.i, label %e1000_mmio_setup.exit, label %for.body.i, !llvm.loop !7

e1000_mmio_setup.exit:                            ; preds = %for.body.i
  %io.i = getelementptr inbounds nuw i8, ptr %call.i26, i64 11104
  tail call void @memory_region_init_io(ptr noundef nonnull %io.i, ptr noundef nonnull %call.i26, ptr noundef nonnull @e1000_io_ops, ptr noundef nonnull %call.i26, ptr noundef nonnull @.str.17, i64 noundef 64) #13
  tail call void @pci_register_bar(ptr noundef %pci_dev, i32 noundef 0, i8 noundef zeroext 0, ptr noundef nonnull %mmio.i) #13
  tail call void @pci_register_bar(ptr noundef %pci_dev, i32 noundef 1, i8 noundef zeroext 1, ptr noundef nonnull %io.i) #13
  %conf = getelementptr inbounds nuw i8, ptr %call.i26, i64 2616
  tail call void @qemu_macaddr_default_if_unset(ptr noundef nonnull %conf) #13
  %eeprom_data = getelementptr inbounds nuw i8, ptr %call.i26, i64 142512
  %call.i27 = tail call ptr @object_get_class(ptr noundef %pci_dev) #13
  %call1.i = tail call ptr @object_class_dynamic_cast_assert(ptr noundef %call.i27, ptr noundef nonnull @.str.1, ptr noundef nonnull @.str.15, i32 noundef 10, ptr noundef nonnull @__func__.PCI_DEVICE_GET_CLASS) #13
  %device_id = getelementptr inbounds nuw i8, ptr %call1.i, i64 210
  %3 = load i16, ptr %device_id, align 2
  tail call void @e1000x_core_prepare_eeprom(ptr noundef nonnull %eeprom_data, ptr noundef nonnull @e1000_eeprom_template, i32 noundef 128, i16 noundef zeroext %3, ptr noundef nonnull %conf) #13
  %call9 = tail call ptr @object_get_typename(ptr noundef nonnull %call.i26) #13
  %id = getelementptr inbounds nuw i8, ptr %call.i, i64 40
  %4 = load ptr, ptr %id, align 8
  %mem_reentrancy_guard = getelementptr inbounds nuw i8, ptr %call.i, i64 152
  %call10 = tail call ptr @qemu_new_nic(ptr noundef nonnull @net_e1000_info, ptr noundef nonnull %conf, ptr noundef %call9, ptr noundef %4, ptr noundef nonnull %mem_reentrancy_guard, ptr noundef nonnull %call.i26) #13
  %nic = getelementptr inbounds nuw i8, ptr %call.i26, i64 2608
  store ptr %call10, ptr %nic, align 16
  %call12 = tail call ptr @qemu_get_queue(ptr noundef %call10) #13
  tail call void @qemu_format_nic_info_str(ptr noundef %call12, ptr noundef nonnull %conf) #13
  %call.i.i.i = tail call noalias dereferenceable_or_null(48) ptr @g_malloc0_n(i64 noundef 1, i64 noundef 48) #14
  tail call void @timer_init_full(ptr noundef %call.i.i.i, ptr noundef null, i32 noundef 1, i32 noundef range(i32 1, 1000001) 1000000, i32 noundef 0, ptr noundef nonnull @e1000_autoneg_timer, ptr noundef nonnull %call.i26) #13
  %autoneg_timer = getelementptr inbounds nuw i8, ptr %call.i26, i64 208520
  store ptr %call.i.i.i, ptr %autoneg_timer, align 8
  %call.i.i.i28 = tail call noalias dereferenceable_or_null(48) ptr @g_malloc0_n(i64 noundef 1, i64 noundef 48) #14
  tail call void @timer_init_full(ptr noundef %call.i.i.i28, ptr noundef null, i32 noundef 1, i32 noundef range(i32 1, 1000001) 1, i32 noundef 0, ptr noundef nonnull @e1000_mit_timer, ptr noundef nonnull %call.i26) #13
  %mit_timer = getelementptr inbounds nuw i8, ptr %call.i26, i64 208528
  store ptr %call.i.i.i28, ptr %mit_timer, align 16
  %call.i.i.i29 = tail call noalias dereferenceable_or_null(48) ptr @g_malloc0_n(i64 noundef 1, i64 noundef 48) #14
  tail call void @timer_init_full(ptr noundef %call.i.i.i29, ptr noundef null, i32 noundef 1, i32 noundef range(i32 1, 1000001) 1000000, i32 noundef 0, ptr noundef nonnull @e1000_flush_queue_timer, ptr noundef nonnull %call.i26) #13
  %flush_queue_timer = getelementptr inbounds nuw i8, ptr %call.i26, i64 208544
  store ptr %call.i.i.i29, ptr %flush_queue_timer, align 16
  ret void
}